; Function Attrs: mustprogress nounwind uwtable
define hidden void @_ZN4cvc58internal29CombinedCardinalityConstraintD2Ev(ptr noundef nonnull align 8 dereferenceable(16) %0) unnamed_addr #8 align 2 personality ptr @__gxx_personality_v0 {
  invoke void @__gmpz_clear(ptr noundef nonnull align 8 dereferenceable(16) %0)
          to label %_ZN4cvc58internal7IntegerD2Ev.exit unwind label %2

2:                                                ; preds = %1
  %3 = landingpad { ptr, i32 }
          catch ptr null
  %4 = extractvalue { ptr, i32 } %3, 0
  tail call void @__clang_call_terminate(ptr %4) #17
  unreachable

_ZN4cvc58internal7IntegerD2Ev.exit:               ; preds = %1
  ret void
}